EXPORTS
	_ZN15CBtSerialClient10ConnectingEv @ 1 NONAME
	_ZN15CBtSerialClient10DisconnectEv @ 2 NONAME
	_ZN15CBtSerialClient10ReadAsyncLEv @ 3 NONAME
	_ZN15CBtSerialClient11ServicePortEv @ 4 NONAME
	_ZN15CBtSerialClient14ServerAddressLEv @ 5 NONAME
	_ZN15CBtSerialClient17SendBufferMaxSizeEv @ 6 NONAME
	_ZN15CBtSerialClient21FreeSpaceInSendBufferEv @ 7 NONAME
	_ZN15CBtSerialClient4NewLER23MBtSerialClientObserver @ 8 NONAME
	_ZN15CBtSerialClient5SendLERK6TDesC8 @ 9 NONAME
	_ZN15CBtSerialClient8ConnectLE10TBTDevAddri @ 10 NONAME
	_ZN15CBtSerialClient8ConnectLERK7TDesC16i @ 11 NONAME
	_ZN15CBtSerialClient8ConnectLEv @ 12 NONAME
	_ZN15CBtSerialClient9ConnectedEv @ 13 NONAME
	_ZN15CBtSerialClientD0Ev @ 14 NONAME
	_ZN15CBtSerialClientD1Ev @ 15 NONAME
	_ZN15CBtSerialClientD2Ev @ 16 NONAME
	_ZTI13CTimeOutTimer @ 17 NONAME ; #<TI>#
	_ZTI14CSocketsReader @ 18 NONAME ; #<TI>#
	_ZTI14CSocketsWriter @ 19 NONAME ; #<TI>#
	_ZTI15CBtSerialClient @ 20 NONAME ; #<TI>#
	_ZTI18CBTServiceSearcher @ 21 NONAME ; #<TI>#
	_ZTI19TSdpAttributeParser @ 22 NONAME ; #<TI>#
	_ZTI23CMessageServiceSearcher @ 23 NONAME ; #<TI>#
	_ZTV13CTimeOutTimer @ 24 NONAME ; #<VT>#
	_ZTV14CSocketsReader @ 25 NONAME ; #<VT>#
	_ZTV14CSocketsWriter @ 26 NONAME ; #<VT>#
	_ZTV15CBtSerialClient @ 27 NONAME ; #<VT>#
	_ZTV18CBTServiceSearcher @ 28 NONAME ; #<VT>#
	_ZTV19TSdpAttributeParser @ 29 NONAME ; #<VT>#
	_ZTV23CMessageServiceSearcher @ 30 NONAME ; #<VT>#

